Certificate:
    Data:
        Version: 3 (0x2)
        Serial Number: 4 (0x4)
        Signature Algorithm: sha1WithRSAEncryption
        Issuer: C=DE, ST=Some-State, O=Sparrow-Labs, CN=root CA
        Validity
            Not Before: Jul 26 07:26:09 2013 GMT
            Not After : Jul 24 07:26:09 2023 GMT
        Subject: C=DE, ST=Some-State, O=Sparrow-Labs, CN=*.afnetworking.com
        Subject Public Key Info:
            Public Key Algorithm: rsaEncryption
            RSA Public Key: (1024 bit)
                Modulus (1024 bit):
                    00:c7:fd:18:95:9c:55:0f:4b:1c:c6:fa:fa:3c:15:
                    db:e2:45:0d:fd:24:85:10:e3:cf:61:e1:d0:aa:80:
                    36:37:5f:ee:6d:5b:b2:23:a6:bd:26:c6:d5:95:70:
                    17:b2:6f:3c:29:1e:3e:c9:da:8e:e1:b1:03:7a:aa:
                    9e:fa:48:cb:b9:a7:0b:5c:dd:bd:74:7c:57:a5:b7:
                    82:79:fd:87:a8:53:c9:69:9c:ec:b4:4a:28:31:4a:
                    9c:d0:18:1f:b7:5d:75:1a:7c:64:f6:a1:35:96:e6:
                    72:9d:d9:44:34:8c:d5:aa:2f:61:58:8e:ac:78:23:
                    97:a9:8d:66:27:53:b3:20:4b
                Exponent: 65537 (0x10001)
        X509v3 extensions:
            X509v3 Basic Constraints: 
                CA:FALSE
            Netscape Comment: 
                OpenSSL Generated Certificate
            X509v3 Subject Key Identifier: 
                CE:19:5D:76:59:25:24:C3:AC:7E:06:1C:57:06:53:37:16:B8:7C:A2
            X509v3 Authority Key Identifier: 
                DirName:/C=DE/ST=Some-State/O=Sparrow-Labs/CN=root CA
                serial:B1:14:58:5B:15:EB:C6:B8

    Signature Algorithm: sha1WithRSAEncryption
        3f:5b:93:63:e8:7f:4c:50:dd:4d:f3:00:d6:ad:05:03:41:38:
        d9:b0:d6:bc:e5:49:9b:4d:0c:19:d2:06:f8:29:7e:79:eb:e3:
        c7:9b:a2:00:d1:86:68:aa:c7:76:36:0e:9b:f2:f5:5f:9b:ba:
        f9:b3:fb:38:f2:23:38:d5:44:f8:8d:50:5e:7e:a3:01:5b:7b:
        de:85:4b:ea:c3:79:1e:79:8d:f4:7c:d6:0c:81:a3:07:a9:12:
        49:02:0a:2b:d5:e2:43:ca:72:97:ca:ac:73:f9:80:09:09:61:
        e2:84:2e:54:30:07:a4:11:2e:8c:7d:1d:c7:69:8b:c3:df:07:
        81:3e
-----BEGIN CERTIFICATE-----
MIIC2jCCAkOgAwIBAgIBBDANBgkqhkiG9w0BAQUFADBLMQswCQYDVQQGEwJERTET
MBEGA1UECBMKU29tZS1TdGF0ZTEVMBMGA1UEChMMU3BhcnJvdy1MYWJzMRAwDgYD
VQQDEwdyb290IENBMB4XDTEzMDcyNjA3MjYwOVoXDTIzMDcyNDA3MjYwOVowVjEL
MAkGA1UEBhMCREUxEzARBgNVBAgTClNvbWUtU3RhdGUxFTATBgNVBAoTDFNwYXJy
b3ctTGFiczEbMBkGA1UEAxQSKi5hZm5ldHdvcmtpbmcuY29tMIGfMA0GCSqGSIb3
DQEBAQUAA4GNADCBiQKBgQDH/RiVnFUPSxzG+vo8FdviRQ39JIUQ489h4dCqgDY3
X+5tW7Ijpr0mxtWVcBeybzwpHj7J2o7hsQN6qp76SMu5pwtc3b10fFelt4J5/Yeo
U8lpnOy0SigxSpzQGB+3XXUafGT2oTWW5nKd2UQ0jNWqL2FYjqx4I5epjWYnU7Mg
SwIDAQABo4HCMIG/MAkGA1UdEwQCMAAwLAYJYIZIAYb4QgENBB8WHU9wZW5TU0wg
R2VuZXJhdGVkIENlcnRpZmljYXRlMB0GA1UdDgQWBBTOGV12WSUkw6x+BhxXBlM3
Frh8ojBlBgNVHSMEXjBcoU+kTTBLMQswCQYDVQQGEwJERTETMBEGA1UECBMKU29t
ZS1TdGF0ZTEVMBMGA1UEChMMU3BhcnJvdy1MYWJzMRAwDgYDVQQDEwdyb290IENB
ggkAsRRYWxXrxrgwDQYJKoZIhvcNAQEFBQADgYEAP1uTY+h/TFDdTfMA1q0FA0E4
2bDWvOVJm00MGdIG+Cl+eevjx5uiANGGaKrHdjYOm/L1X5u6+bP7OPIjONVE+I1Q
Xn6jAVt73oVL6sN5HnmN9HzWDIGjB6kSSQIKK9XiQ8pyl8qsc/mACQlh4oQuVDAH
pBEujH0dx2mLw98HgT4=
-----END CERTIFICATE-----
